target datalayout = "e-m:e-p270:32:32-p271:32:32-p272:64:64-i64:64-i128:128-f80:128-n8:16:32:64-S128"
target triple = "x86_64-pc-linux-gnu"

%struct.png_XYZ = type { i32, i32, i32, i32, i32, i32, i32, i32, i32 }
%struct.png_xy = type { i32, i32, i32, i32, i32, i32, i32, i32 }
%struct.png_struct_def = type { [1 x %struct.__jmp_buf_tag], ptr, ptr, i64, ptr, ptr, ptr, ptr, ptr, ptr, ptr, ptr, ptr, i8, i8, i32, i32, i32, i32, %struct.z_stream_s, ptr, i32, i32, i32, i32, i32, i32, i32, i32, i32, i32, i32, i32, i32, i32, i32, i32, i32, i32, i32, i32, i64, i32, i32, i32, ptr, ptr, ptr, ptr, i64, i32, i32, ptr, i16, i32, i16, i8, i8, i8, i8, i8, i8, i8, i8, i8, i8, i8, i8, i8, i8, i8, i16, i8, i32, %struct.png_color_16_struct, %struct.png_color_16_struct, ptr, i32, i32, i32, i32, ptr, ptr, ptr, ptr, ptr, ptr, %struct.png_color_8_struct, %struct.png_color_8_struct, ptr, %struct.png_color_16_struct, ptr, ptr, ptr, ptr, ptr, ptr, ptr, ptr, ptr, i32, i32, i64, i64, i64, i64, i32, i32, ptr, ptr, i32, [29 x i8], i32, ptr, ptr, i32, i32, ptr, i8, i8, i16, i16, ptr, i32, i8, ptr, ptr, ptr, ptr, ptr, ptr, ptr, i8, i32, i32, i32, i64, %struct.png_unknown_chunk_t, i64, ptr, i64, i32, i32, ptr, [4 x ptr], %struct.png_colorspace }
%struct.__jmp_buf_tag = type { [8 x i64], i32, %struct.__sigset_t }
%struct.__sigset_t = type { [16 x i64] }
%struct.z_stream_s = type { ptr, i32, i64, ptr, i32, i64, ptr, ptr, ptr, ptr, ptr, i32, i64, i64 }
%struct.png_color_8_struct = type { i8, i8, i8, i8, i8 }
%struct.png_color_16_struct = type { i8, i16, i16, i16, i16 }
%struct.png_unknown_chunk_t = type { [5 x i8], ptr, i64, i8 }
%struct.png_colorspace = type { i32, %struct.png_xy, %struct.png_XYZ, i16, i16 }

; Function Attrs: nounwind uwtable
define i32 @png_handle_as_unknown(ptr noalias noundef %0, ptr noundef %1) #0 {
  %3 = alloca i32, align 4
  %4 = alloca ptr, align 8
  %5 = alloca ptr, align 8
  %6 = alloca ptr, align 8
  %7 = alloca ptr, align 8
  store ptr %0, ptr %4, align 8
  store ptr %1, ptr %5, align 8
  %8 = load ptr, ptr %4, align 8
  %9 = icmp eq ptr %8, null
  br i1 %9, label %18, label %10

10:                                               ; preds = %2
  %11 = load ptr, ptr %5, align 8
  %12 = icmp eq ptr %11, null
  br i1 %12, label %18, label %13

13:                                               ; preds = %10
  %14 = load ptr, ptr %4, align 8
  %15 = getelementptr inbounds %struct.png_struct_def, ptr %14, i32 0, i32 116
  %16 = load i32, ptr %15, align 4
  %17 = icmp eq i32 %16, 0
  br i1 %17, label %18, label %19

18:                                               ; preds = %13, %10, %2
  store i32 0, ptr %3, align 4
  br label %48

19:                                               ; preds = %13
  %20 = load ptr, ptr %4, align 8
  %21 = getelementptr inbounds %struct.png_struct_def, ptr %20, i32 0, i32 117
  %22 = load ptr, ptr %21, align 8
  store ptr %22, ptr %7, align 8
  %23 = load ptr, ptr %7, align 8
  %24 = load ptr, ptr %4, align 8
  %25 = getelementptr inbounds %struct.png_struct_def, ptr %24, i32 0, i32 116
  %26 = load i32, ptr %25, align 4
  %27 = mul i32 %26, 5
  %28 = zext i32 %27 to i64
  %29 = getelementptr inbounds i8, ptr %23, i64 %28
  store ptr %29, ptr %6, align 8
  br label %30

30:                                               ; preds = %43, %19
  %31 = load ptr, ptr %6, align 8
  %32 = getelementptr inbounds i8, ptr %31, i64 -5
  store ptr %32, ptr %6, align 8
  %33 = load ptr, ptr %5, align 8
  %34 = load ptr, ptr %6, align 8
  %35 = call i32 @memcmp(ptr noundef %33, ptr noundef %34, i64 noundef 4) #11
  %36 = icmp eq i32 %35, 0
  br i1 %36, label %37, label %42

37:                                               ; preds = %30
  %38 = load ptr, ptr %6, align 8
  %39 = getelementptr inbounds i8, ptr %38, i64 4
  %40 = load i8, ptr %39, align 1
  %41 = zext i8 %40 to i32
  store i32 %41, ptr %3, align 4
  br label %48

42:                                               ; preds = %30
  br label %43

43:                                               ; preds = %42
  %44 = load ptr, ptr %6, align 8
  %45 = load ptr, ptr %7, align 8
  %46 = icmp ugt ptr %44, %45
  br i1 %46, label %30, label %47, !llvm.loop !13

47:                                               ; preds = %43
  store i32 0, ptr %3, align 4
  br label %48

48:                                               ; preds = %47, %37, %18
  %49 = load i32, ptr %3, align 4
  ret i32 %49
}

; Function Attrs: nounwind uwtable
define i32 @png_chunk_unknown_handling(ptr noalias noundef %0, i32 noundef %1) #0 {
  %3 = alloca ptr, align 8
  %4 = alloca i32, align 4
  %5 = alloca [5 x i8], align 1
  store ptr %0, ptr %3, align 8
  store i32 %1, ptr %4, align 4
  %6 = load i32, ptr %4, align 4
  %7 = lshr i32 %6, 24
  %8 = and i32 %7, 255
  %9 = trunc i32 %8 to i8
  %10 = getelementptr inbounds [5 x i8], ptr %5, i64 0, i64 0
  %11 = getelementptr inbounds i8, ptr %10, i64 0
  store i8 %9, ptr %11, align 1
  %12 = load i32, ptr %4, align 4
  %13 = lshr i32 %12, 16
  %14 = and i32 %13, 255
  %15 = trunc i32 %14 to i8
  %16 = getelementptr inbounds [5 x i8], ptr %5, i64 0, i64 0
  %17 = getelementptr inbounds i8, ptr %16, i64 1
  store i8 %15, ptr %17, align 1
  %18 = load i32, ptr %4, align 4
  %19 = lshr i32 %18, 8
  %20 = and i32 %19, 255
  %21 = trunc i32 %20 to i8
  %22 = getelementptr inbounds [5 x i8], ptr %5, i64 0, i64 0
  %23 = getelementptr inbounds i8, ptr %22, i64 2
  store i8 %21, ptr %23, align 1
  %24 = load i32, ptr %4, align 4
  %25 = and i32 %24, 255
  %26 = trunc i32 %25 to i8
  %27 = getelementptr inbounds [5 x i8], ptr %5, i64 0, i64 0
  %28 = getelementptr inbounds i8, ptr %27, i64 3
  store i8 %26, ptr %28, align 1
  %29 = getelementptr inbounds [5 x i8], ptr %5, i64 0, i64 0
  %30 = getelementptr inbounds i8, ptr %29, i64 4
  store i8 0, ptr %30, align 1
  %31 = load ptr, ptr %3, align 8
  %32 = getelementptr inbounds [5 x i8], ptr %5, i64 0, i64 0
  %33 = call i32 @png_handle_as_unknown(ptr noundef %31, ptr noundef %32)
  ret i32 %33
}