; Function Attrs: nofree nounwind memory(read, inaccessiblemem: none) uwtable
define range(i32 0, 256) i32 @png_chunk_unknown_handling(ptr noalias noundef readonly %0, i32 noundef %1) local_unnamed_addr #14 {
  %3 = alloca [5 x i8], align 1
  %4 = lshr i32 %1, 24
  %5 = trunc nuw i32 %4 to i8
  store i8 %5, ptr %3, align 1
  %6 = lshr i32 %1, 16
  %7 = trunc i32 %6 to i8
  %8 = getelementptr inbounds i8, ptr %3, i64 1
  store i8 %7, ptr %8, align 1
  %9 = lshr i32 %1, 8
  %10 = trunc i32 %9 to i8
  %11 = getelementptr inbounds i8, ptr %3, i64 2
  store i8 %10, ptr %11, align 1
  %12 = trunc i32 %1 to i8
  %13 = getelementptr inbounds i8, ptr %3, i64 3
  store i8 %12, ptr %13, align 1
  %14 = icmp eq ptr %0, null
  br i1 %14, label %png_handle_as_unknown.exit, label %15

15:                                               ; preds = %2
  %16 = getelementptr inbounds i8, ptr %0, i64 964
  %17 = load i32, ptr %16, align 4, !alias.scope !14
  %18 = icmp eq i32 %17, 0
  br i1 %18, label %png_handle_as_unknown.exit, label %19

19:                                               ; preds = %15
  %20 = getelementptr inbounds i8, ptr %0, i64 968
  %21 = load ptr, ptr %20, align 8, !alias.scope !14
  %22 = mul i32 %17, 5
  %23 = zext i32 %22 to i64
  %24 = getelementptr inbounds i8, ptr %21, i64 %23
  br label %25

25:                                               ; preds = %32, %19
  %.013.i = phi ptr [ %24, %19 ], [ %26, %32 ]
  %26 = getelementptr inbounds i8, ptr %.013.i, i64 -5
  %bcmp.i = call i32 @bcmp(ptr noundef nonnull readonly dereferenceable(4) %3, ptr noundef nonnull dereferenceable(4) %26, i64 4)
  %27 = icmp eq i32 %bcmp.i, 0
  br i1 %27, label %28, label %32

28:                                               ; preds = %25
  %29 = getelementptr inbounds i8, ptr %.013.i, i64 -1
  %30 = load i8, ptr %29, align 1
  %31 = zext i8 %30 to i32
  br label %png_handle_as_unknown.exit

32:                                               ; preds = %25
  %33 = icmp ugt ptr %26, %21
  br i1 %33, label %25, label %png_handle_as_unknown.exit, !llvm.loop !13

png_handle_as_unknown.exit:                       ; preds = %32, %2, %15, %28
  %.0.i = phi i32 [ %31, %28 ], [ 0, %15 ], [ 0, %2 ], [ 0, %32 ]
  ret i32 %.0.i
}